target datalayout = "e-m:e-p270:32:32-p271:32:32-p272:64:64-i64:64-i128:128-f80:128-n8:16:32:64-S128"
target triple = "x86_64-pc-linux-gnu"

@blas_cpu_number = external global i32, align 4

; Function Attrs: inlinehint nounwind uwtable
define internal i32 @num_cpu_avail(i32 noundef %0) #2 {
  %2 = alloca i32, align 4
  %3 = alloca i32, align 4
  store i32 %0, ptr %3, align 4, !tbaa !12
  %4 = load i32, ptr @blas_cpu_number, align 4, !tbaa !12
  %5 = icmp eq i32 %4, 1
  br i1 %5, label %6, label %7

6:                                                ; preds = %1
  store i32 1, ptr %2, align 4
  br label %9

7:                                                ; preds = %1
  %8 = load i32, ptr @blas_cpu_number, align 4, !tbaa !12
  store i32 %8, ptr %2, align 4
  br label %9

9:                                                ; preds = %7, %6
  %10 = load i32, ptr %2, align 4
  ret i32 %10
}

; Function Attrs: nounwind uwtable
define double @ddot_k(i64 noundef %0, ptr noundef %1, i64 noundef %2, ptr noundef %3, i64 noundef %4) #0 {
  %6 = alloca i64, align 8
  %7 = alloca ptr, align 8
  %8 = alloca i64, align 8
  %9 = alloca ptr, align 8
  %10 = alloca i64, align 8
  %11 = alloca i32, align 4
  %12 = alloca double, align 8
  %13 = alloca double, align 8
  %14 = alloca i32, align 4
  %15 = alloca i32, align 4
  %16 = alloca [256 x i8], align 16
  %17 = alloca ptr, align 8
  store i64 %0, ptr %6, align 8, !tbaa !3
  store ptr %1, ptr %7, align 8, !tbaa !7
  store i64 %2, ptr %8, align 8, !tbaa !3
  store ptr %3, ptr %9, align 8, !tbaa !7
  store i64 %4, ptr %10, align 8, !tbaa !3
  call void @llvm.lifetime.start.p0(i64 4, ptr %11) #10
  call void @llvm.lifetime.start.p0(i64 8, ptr %12) #10
  call void @llvm.lifetime.start.p0(i64 8, ptr %13) #10
  store double 0.000000e+00, ptr %13, align 8, !tbaa !10
  %18 = load i64, ptr %8, align 8, !tbaa !3
  %19 = icmp eq i64 %18, 0
  br i1 %19, label %26, label %20

20:                                               ; preds = %5
  %21 = load i64, ptr %10, align 8, !tbaa !3
  %22 = icmp eq i64 %21, 0
  br i1 %22, label %26, label %23

23:                                               ; preds = %20
  %24 = load i64, ptr %6, align 8, !tbaa !3
  %25 = icmp sle i64 %24, 10000
  br i1 %25, label %26, label %27

26:                                               ; preds = %23, %20, %5
  store i32 1, ptr %11, align 4, !tbaa !12
  br label %29

27:                                               ; preds = %23
  %28 = call i32 @num_cpu_avail(i32 noundef 1)
  store i32 %28, ptr %11, align 4, !tbaa !12
  br label %29

29:                                               ; preds = %27, %26
  %30 = load i32, ptr %11, align 4, !tbaa !12
  %31 = icmp eq i32 %30, 1
  br i1 %31, label %32, label %39

32:                                               ; preds = %29
  %33 = load i64, ptr %6, align 8, !tbaa !3
  %34 = load ptr, ptr %7, align 8, !tbaa !7
  %35 = load i64, ptr %8, align 8, !tbaa !3
  %36 = load ptr, ptr %9, align 8, !tbaa !7
  %37 = load i64, ptr %10, align 8, !tbaa !3
  %38 = call double @dot_compute(i64 noundef %33, ptr noundef %34, i64 noundef %35, ptr noundef %36, i64 noundef %37)
  store double %38, ptr %13, align 8, !tbaa !10
  br label %65

39:                                               ; preds = %29
  call void @llvm.lifetime.start.p0(i64 4, ptr %14) #10
  call void @llvm.lifetime.start.p0(i64 4, ptr %15) #10
  call void @llvm.lifetime.start.p0(i64 256, ptr %16) #10
  call void @llvm.lifetime.start.p0(i64 8, ptr %17) #10
  store i32 3, ptr %14, align 4, !tbaa !12
  %40 = load i32, ptr %14, align 4, !tbaa !12
  %41 = load i64, ptr %6, align 8, !tbaa !3
  %42 = load ptr, ptr %7, align 8, !tbaa !7
  %43 = load i64, ptr %8, align 8, !tbaa !3
  %44 = load ptr, ptr %9, align 8, !tbaa !7
  %45 = load i64, ptr %10, align 8, !tbaa !3
  %46 = getelementptr inbounds [256 x i8], ptr %16, i64 0, i64 0
  %47 = load i32, ptr %11, align 4, !tbaa !12
  %48 = call i32 @blas_level1_thread_with_return_value(i32 noundef %40, i64 noundef %41, i64 noundef 0, i64 noundef 0, ptr noundef %12, ptr noundef %42, i64 noundef %43, ptr noundef %44, i64 noundef %45, ptr noundef %46, i64 noundef 0, ptr noundef @dot_thread_function, i32 noundef %47)
  %49 = getelementptr inbounds [256 x i8], ptr %16, i64 0, i64 0
  store ptr %49, ptr %17, align 8, !tbaa !7
  store i32 0, ptr %15, align 4, !tbaa !12
  br label %50

50:                                               ; preds = %61, %39
  %51 = load i32, ptr %15, align 4, !tbaa !12
  %52 = load i32, ptr %11, align 4, !tbaa !12
  %53 = icmp slt i32 %51, %52
  br i1 %53, label %54, label %64

54:                                               ; preds = %50
  %55 = load double, ptr %13, align 8, !tbaa !10
  %56 = load ptr, ptr %17, align 8, !tbaa !7
  %57 = load double, ptr %56, align 8, !tbaa !10
  %58 = fadd double %55, %57
  store double %58, ptr %13, align 8, !tbaa !10
  %59 = load ptr, ptr %17, align 8, !tbaa !7
  %60 = getelementptr inbounds nuw i8, ptr %59, i64 16
  store ptr %60, ptr %17, align 8, !tbaa !7
  br label %61

61:                                               ; preds = %54
  %62 = load i32, ptr %15, align 4, !tbaa !12
  %63 = add nsw i32 %62, 1
  store i32 %63, ptr %15, align 4, !tbaa !12
  br label %50, !llvm.loop !14

64:                                               ; preds = %50
  call void @llvm.lifetime.end.p0(i64 8, ptr %17) #10
  call void @llvm.lifetime.end.p0(i64 256, ptr %16) #10
  call void @llvm.lifetime.end.p0(i64 4, ptr %15) #10
  call void @llvm.lifetime.end.p0(i64 4, ptr %14) #10
  br label %65

65:                                               ; preds = %64, %32
  %66 = load double, ptr %13, align 8, !tbaa !10
  call void @llvm.lifetime.end.p0(i64 8, ptr %13) #10
  call void @llvm.lifetime.end.p0(i64 8, ptr %12) #10
  call void @llvm.lifetime.end.p0(i64 4, ptr %11) #10
  ret double %66
}