; Function Attrs: nounwind uwtable
define double @ddot_k(i64 noundef %0, ptr noundef %1, i64 noundef %2, ptr noundef %3, i64 noundef %4) local_unnamed_addr #0 {
  %6 = alloca double, align 8
  %7 = alloca [256 x i8], align 16
  call void @llvm.lifetime.start.p0(i64 8, ptr nonnull %6) #7
  %8 = icmp eq i64 %2, 0
  %9 = icmp eq i64 %4, 0
  %or.cond = or i1 %8, %9
  %10 = icmp slt i64 %0, 10001
  %or.cond3 = or i1 %10, %or.cond
  br i1 %or.cond3, label %.thread, label %11

11:                                               ; preds = %5
  %12 = load i32, ptr @blas_cpu_number, align 4, !tbaa !3
  %13 = icmp eq i32 %12, 1
  br i1 %13, label %.thread, label %15

.thread:                                          ; preds = %5, %11
  %14 = tail call fastcc double @dot_compute(i64 noundef %0, ptr noundef %1, i64 noundef %2, ptr noundef %3, i64 noundef %4)
  br label %22

15:                                               ; preds = %11
  call void @llvm.lifetime.start.p0(i64 256, ptr nonnull %7) #7
  %16 = call i32 @blas_level1_thread_with_return_value(i32 noundef 3, i64 noundef %0, i64 noundef 0, i64 noundef 0, ptr noundef nonnull %6, ptr noundef %1, i64 noundef %2, ptr noundef %3, i64 noundef %4, ptr noundef nonnull %7, i64 noundef 0, ptr noundef nonnull @dot_thread_function, i32 noundef %12) #7
  %17 = icmp sgt i32 %12, 0
  br i1 %17, label %.lr.ph, label %._crit_edge

.lr.ph:                                           ; preds = %15, %.lr.ph
  %.031 = phi ptr [ %20, %.lr.ph ], [ %7, %15 ]
  %.02530 = phi i32 [ %21, %.lr.ph ], [ 0, %15 ]
  %.129 = phi double [ %19, %.lr.ph ], [ 0.000000e+00, %15 ]
  %18 = load double, ptr %.031, align 8, !tbaa !7
  %19 = fadd double %.129, %18
  %20 = getelementptr inbounds nuw i8, ptr %.031, i64 16
  %21 = add nuw nsw i32 %.02530, 1
  %exitcond.not = icmp eq i32 %21, %12
  br i1 %exitcond.not, label %._crit_edge, label %.lr.ph, !llvm.loop !9

._crit_edge:                                      ; preds = %.lr.ph, %15
  %.1.lcssa = phi double [ 0.000000e+00, %15 ], [ %19, %.lr.ph ]
  call void @llvm.lifetime.end.p0(i64 256, ptr nonnull %7) #7
  br label %22

22:                                               ; preds = %._crit_edge, %.thread
  %.027 = phi double [ %14, %.thread ], [ %.1.lcssa, %._crit_edge ]
  call void @llvm.lifetime.end.p0(i64 8, ptr nonnull %6) #7
  ret double %.027
}